target datalayout = "e-m:e-p270:32:32-p271:32:32-p272:64:64-i64:64-i128:128-f80:128-n8:16:32:64-S128"
target triple = "x86_64-pc-linux-gnu"

%struct.lhash_st = type { i64, ptr, i64, i32, ptr, ptr }
%struct.lhash_item_st = type { ptr, ptr, i32 }

; Function Attrs: nounwind uwtable
define internal void @lh_doall_internal(ptr noundef %0, ptr noundef %1, ptr noundef %2, ptr noundef %3) #0 {
  %5 = alloca ptr, align 8
  %6 = alloca ptr, align 8
  %7 = alloca ptr, align 8
  %8 = alloca ptr, align 8
  %9 = alloca i64, align 8
  %10 = alloca ptr, align 8
  %11 = alloca ptr, align 8
  %12 = alloca i32, align 4
  store ptr %0, ptr %5, align 8, !tbaa !10
  store ptr %1, ptr %6, align 8, !tbaa !6
  store ptr %2, ptr %7, align 8, !tbaa !6
  store ptr %3, ptr %8, align 8, !tbaa !6
  call void @llvm.lifetime.start.p0(i64 8, ptr %9) #6
  call void @llvm.lifetime.start.p0(i64 8, ptr %10) #6
  call void @llvm.lifetime.start.p0(i64 8, ptr %11) #6
  %13 = load ptr, ptr %5, align 8, !tbaa !10
  %14 = icmp eq ptr %13, null
  br i1 %14, label %15, label %16

15:                                               ; preds = %4
  store i32 1, ptr %12, align 4
  br label %79

16:                                               ; preds = %4
  %17 = load ptr, ptr %5, align 8, !tbaa !10
  %18 = getelementptr inbounds nuw %struct.lhash_st, ptr %17, i32 0, i32 3
  %19 = load i32, ptr %18, align 8, !tbaa !40
  %20 = icmp ult i32 %19, -1
  br i1 %20, label %21, label %26

21:                                               ; preds = %16
  %22 = load ptr, ptr %5, align 8, !tbaa !10
  %23 = getelementptr inbounds nuw %struct.lhash_st, ptr %22, i32 0, i32 3
  %24 = load i32, ptr %23, align 8, !tbaa !40
  %25 = add i32 %24, 1
  store i32 %25, ptr %23, align 8, !tbaa !40
  br label %26

26:                                               ; preds = %21, %16
  store i64 0, ptr %9, align 8, !tbaa !22
  br label %27

27:                                               ; preds = %64, %26
  %28 = load i64, ptr %9, align 8, !tbaa !22
  %29 = load ptr, ptr %5, align 8, !tbaa !10
  %30 = getelementptr inbounds nuw %struct.lhash_st, ptr %29, i32 0, i32 2
  %31 = load i64, ptr %30, align 8, !tbaa !12
  %32 = icmp ult i64 %28, %31
  br i1 %32, label %33, label %67

33:                                               ; preds = %27
  %34 = load ptr, ptr %5, align 8, !tbaa !10
  %35 = getelementptr inbounds nuw %struct.lhash_st, ptr %34, i32 0, i32 1
  %36 = load ptr, ptr %35, align 8, !tbaa !17
  %37 = load i64, ptr %9, align 8, !tbaa !22
  %38 = getelementptr inbounds nuw ptr, ptr %36, i64 %37
  %39 = load ptr, ptr %38, align 8, !tbaa !27
  store ptr %39, ptr %10, align 8, !tbaa !27
  br label %40

40:                                               ; preds = %61, %33
  %41 = load ptr, ptr %10, align 8, !tbaa !27
  %42 = icmp ne ptr %41, null
  br i1 %42, label %43, label %63

43:                                               ; preds = %40
  %44 = load ptr, ptr %10, align 8, !tbaa !27
  %45 = getelementptr inbounds nuw %struct.lhash_item_st, ptr %44, i32 0, i32 1
  %46 = load ptr, ptr %45, align 8, !tbaa !29
  store ptr %46, ptr %11, align 8, !tbaa !27
  %47 = load ptr, ptr %7, align 8, !tbaa !6
  %48 = icmp ne ptr %47, null
  br i1 %48, label %49, label %55

49:                                               ; preds = %43
  %50 = load ptr, ptr %7, align 8, !tbaa !6
  %51 = load ptr, ptr %10, align 8, !tbaa !27
  %52 = getelementptr inbounds nuw %struct.lhash_item_st, ptr %51, i32 0, i32 0
  %53 = load ptr, ptr %52, align 8, !tbaa !35
  %54 = load ptr, ptr %8, align 8, !tbaa !6
  call void %50(ptr noundef %53, ptr noundef %54)
  br label %60

55:                                               ; preds = %43
  %56 = load ptr, ptr %6, align 8, !tbaa !6
  %57 = load ptr, ptr %10, align 8, !tbaa !27
  %58 = getelementptr inbounds nuw %struct.lhash_item_st, ptr %57, i32 0, i32 0
  %59 = load ptr, ptr %58, align 8, !tbaa !35
  call void %56(ptr noundef %59)
  br label %60

60:                                               ; preds = %55, %49
  br label %61

61:                                               ; preds = %60
  %62 = load ptr, ptr %11, align 8, !tbaa !27
  store ptr %62, ptr %10, align 8, !tbaa !27
  br label %40, !llvm.loop !41

63:                                               ; preds = %40
  br label %64

64:                                               ; preds = %63
  %65 = load i64, ptr %9, align 8, !tbaa !22
  %66 = add i64 %65, 1
  store i64 %66, ptr %9, align 8, !tbaa !22
  br label %27, !llvm.loop !42

67:                                               ; preds = %27
  %68 = load ptr, ptr %5, align 8, !tbaa !10
  %69 = getelementptr inbounds nuw %struct.lhash_st, ptr %68, i32 0, i32 3
  %70 = load i32, ptr %69, align 8, !tbaa !40
  %71 = icmp ult i32 %70, -1
  br i1 %71, label %72, label %77

72:                                               ; preds = %67
  %73 = load ptr, ptr %5, align 8, !tbaa !10
  %74 = getelementptr inbounds nuw %struct.lhash_st, ptr %73, i32 0, i32 3
  %75 = load i32, ptr %74, align 8, !tbaa !40
  %76 = add i32 %75, -1
  store i32 %76, ptr %74, align 8, !tbaa !40
  br label %77

77:                                               ; preds = %72, %67
  %78 = load ptr, ptr %5, align 8, !tbaa !10
  call void @lh_maybe_resize(ptr noundef %78)
  store i32 0, ptr %12, align 4
  br label %79

79:                                               ; preds = %77, %15
  call void @llvm.lifetime.end.p0(i64 8, ptr %11) #6
  call void @llvm.lifetime.end.p0(i64 8, ptr %10) #6
  call void @llvm.lifetime.end.p0(i64 8, ptr %9) #6
  %80 = load i32, ptr %12, align 4
  switch i32 %80, label %82 [
    i32 0, label %81
    i32 1, label %81
  ]

81:                                               ; preds = %79, %79
  ret void

82:                                               ; preds = %79
  unreachable
}

; Function Attrs: nounwind uwtable
define hidden void @lh_doall_arg(ptr noundef %0, ptr noundef %1, ptr noundef %2) #0 {
  %4 = alloca ptr, align 8
  %5 = alloca ptr, align 8
  %6 = alloca ptr, align 8
  store ptr %0, ptr %4, align 8, !tbaa !10
  store ptr %1, ptr %5, align 8, !tbaa !6
  store ptr %2, ptr %6, align 8, !tbaa !6
  %7 = load ptr, ptr %4, align 8, !tbaa !10
  %8 = load ptr, ptr %5, align 8, !tbaa !6
  %9 = load ptr, ptr %6, align 8, !tbaa !6
  call void @lh_doall_internal(ptr noundef %7, ptr noundef null, ptr noundef %8, ptr noundef %9)
  ret void
}