; Function Attrs: nounwind uwtable
define hidden void @lh_doall_arg(ptr noundef captures(address_is_null) %0, ptr noundef readonly captures(address_is_null) %1, ptr noundef %2) local_unnamed_addr #5 {
  %4 = icmp eq ptr %0, null
  br i1 %4, label %lh_doall_internal.exit, label %5

5:                                                ; preds = %3
  %6 = getelementptr inbounds nuw i8, ptr %0, i64 24
  %7 = load i32, ptr %6, align 8, !tbaa !31
  %.not.i = icmp eq i32 %7, -1
  br i1 %.not.i, label %10, label %8

8:                                                ; preds = %5
  %9 = add nuw i32 %7, 1
  store i32 %9, ptr %6, align 8, !tbaa !31
  br label %10

10:                                               ; preds = %8, %5
  %11 = phi i32 [ %9, %8 ], [ -1, %5 ]
  %12 = getelementptr inbounds nuw i8, ptr %0, i64 16
  %13 = load i64, ptr %12, align 8, !tbaa !6
  %.not33.i = icmp eq i64 %13, 0
  br i1 %.not33.i, label %._crit_edge32.i, label %.lr.ph31.i

.lr.ph31.i:                                       ; preds = %10
  %14 = getelementptr inbounds nuw i8, ptr %0, i64 8
  %.not26.i = icmp eq ptr %1, null
  br i1 %.not26.i, label %._crit_edge32.i, label %.lr.ph31.split.i

.lr.ph31.split.i:                                 ; preds = %.lr.ph31.i, %._crit_edge.split.i
  %15 = phi i64 [ %22, %._crit_edge.split.i ], [ %13, %.lr.ph31.i ]
  %.029.i = phi i64 [ %23, %._crit_edge.split.i ], [ 0, %.lr.ph31.i ]
  %16 = load ptr, ptr %14, align 8, !tbaa !14
  %17 = getelementptr inbounds nuw ptr, ptr %16, i64 %.029.i
  %18 = load ptr, ptr %17, align 8, !tbaa !20
  %.not2527.i = icmp eq ptr %18, null
  br i1 %.not2527.i, label %._crit_edge.split.i, label %.lr.ph.i

.lr.ph.i:                                         ; preds = %.lr.ph31.split.i, %.lr.ph.i
  %.01928.i = phi ptr [ %20, %.lr.ph.i ], [ %18, %.lr.ph31.split.i ]
  %19 = getelementptr inbounds nuw i8, ptr %.01928.i, i64 8
  %20 = load ptr, ptr %19, align 8, !tbaa !22
  %21 = load ptr, ptr %.01928.i, align 8, !tbaa !27
  tail call void %1(ptr noundef %21, ptr noundef %2) #9
  %.not25.i = icmp eq ptr %20, null
  br i1 %.not25.i, label %._crit_edge.split.loopexit.i, label %.lr.ph.i, !llvm.loop !35

._crit_edge.split.loopexit.i:                     ; preds = %.lr.ph.i
  %.pre.i = load i64, ptr %12, align 8, !tbaa !6
  br label %._crit_edge.split.i

._crit_edge.split.i:                              ; preds = %._crit_edge.split.loopexit.i, %.lr.ph31.split.i
  %22 = phi i64 [ %.pre.i, %._crit_edge.split.loopexit.i ], [ %15, %.lr.ph31.split.i ]
  %23 = add nuw i64 %.029.i, 1
  %24 = icmp ult i64 %23, %22
  br i1 %24, label %.lr.ph31.split.i, label %._crit_edge32.i.loopexit4, !llvm.loop !34

._crit_edge32.i.loopexit4:                        ; preds = %._crit_edge.split.i
  %.pre = load i32, ptr %6, align 8, !tbaa !31
  br label %._crit_edge32.i

._crit_edge32.i:                                  ; preds = %.lr.ph31.i, %._crit_edge32.i.loopexit4, %10
  %25 = phi i32 [ %.pre, %._crit_edge32.i.loopexit4 ], [ %11, %10 ], [ %11, %.lr.ph31.i ]
  %.not24.i = icmp eq i32 %25, -1
  br i1 %.not24.i, label %28, label %26

26:                                               ; preds = %._crit_edge32.i
  %27 = add i32 %25, -1
  store i32 %27, ptr %6, align 8, !tbaa !31
  br label %28

28:                                               ; preds = %26, %._crit_edge32.i
  tail call fastcc void @lh_maybe_resize(ptr noundef nonnull %0)
  br label %lh_doall_internal.exit

lh_doall_internal.exit:                           ; preds = %3, %28
  ret void
}